Certificate:
    Data:
        Version: 3 (0x2)
        Serial Number: 1 (0x1)
        Signature Algorithm: sha1WithRSAEncryption
        Issuer: C=BA, ST=RS, L=BL, OU=ETF, CN=CA
        Validity
            Not Before: Feb  8 21:15:44 2023 GMT
            Not After : Aug  9 21:15:44 2023 GMT
        Subject: C=BA, ST=RS, OU=ETF, CN=marko
        Subject Public Key Info:
            Public Key Algorithm: rsaEncryption
                Public-Key: (2048 bit)
                Modulus:
                    00:df:47:c9:aa:cd:6d:bf:93:66:69:9d:2d:37:77:
                    95:3e:89:0d:de:45:f8:3b:03:94:bb:47:20:f8:df:
                    67:95:20:5a:2e:8b:ec:a4:a6:a4:04:20:3a:e2:a4:
                    a3:cf:49:91:7e:a8:38:22:24:3b:e5:be:31:ad:fa:
                    4b:3e:f5:6d:89:e2:8c:04:5b:6c:36:76:eb:39:1b:
                    ae:26:f4:ce:ff:fd:0c:f9:ec:68:56:3d:9f:01:46:
                    9d:30:92:c8:db:71:f8:3b:a4:d0:b4:ff:14:1b:81:
                    43:58:f7:a4:a7:0c:53:cd:00:c3:22:41:45:91:cb:
                    cb:39:64:8d:02:dc:ff:a9:53:43:c5:0e:d7:b5:52:
                    07:95:e8:a3:ca:56:ef:38:dd:c1:bc:07:3c:1a:51:
                    86:34:a6:98:db:5d:61:bc:eb:5b:6d:44:f2:b4:ad:
                    72:58:3c:36:8e:70:db:57:df:2c:31:62:29:e5:83:
                    ae:05:cd:e4:c4:2e:89:eb:3c:e2:96:79:42:d6:31:
                    46:73:08:b4:7b:40:4f:0d:89:1b:e4:6e:66:0d:12:
                    95:14:23:16:9a:aa:9b:d2:66:83:f0:52:f2:bf:0e:
                    76:9c:60:09:6b:46:25:45:6e:3c:c2:dc:60:bb:ca:
                    7a:51:1d:be:ba:b5:d5:a5:ae:8d:54:ca:b7:22:6a:
                    bf:0b
                Exponent: 65537 (0x10001)
        X509v3 extensions:
            X509v3 Basic Constraints: 
                CA:FALSE
            X509v3 Key Usage: 
                Digital Signature
            X509v3 Extended Key Usage: 
                TLS Web Client Authentication
            Netscape Comment: 
                OpenSSL Generated Certificate
            X509v3 Subject Key Identifier: 
                60:CC:58:DB:80:CD:D2:75:FF:FC:F0:A4:B4:76:44:5A:43:AC:B3:56
            X509v3 Authority Key Identifier: 
                EA:E4:92:86:C7:DE:14:CF:C9:01:5F:E5:19:4B:67:F3:6F:D8:3C:D9
            X509v3 CRL Distribution Points: 
                Full Name:
                  URI:http://192.168.21.89/rootcrl.pem
    Signature Algorithm: sha1WithRSAEncryption
    Signature Value:
        06:30:db:db:83:56:eb:0b:ed:4c:f3:7a:40:e3:c4:ec:39:71:
        99:af:cd:08:55:e5:67:b5:28:fa:48:45:23:ae:76:fd:bd:05:
        6f:db:5f:5a:be:aa:77:92:f3:4d:d9:49:ca:b3:b6:75:31:80:
        1a:7d:27:7d:ec:fe:dd:4e:68:aa:fd:ad:26:31:95:9d:b7:81:
        00:5c:db:3a:fd:24:f7:c0:fe:2a:b9:bb:5e:04:a6:ba:ae:72:
        6d:10:40:ca:32:3e:24:ec:74:9b:cc:b7:8d:1c:7f:14:20:45:
        bb:7a:f0:13:a0:0d:7b:fe:e4:94:59:20:f5:3f:ad:29:a7:9d:
        47:0b:a8:b3:2d:78:80:09:47:13:d5:35:bb:39:3d:64:94:19:
        e7:4b:1b:e0:ef:30:79:67:11:03:2d:00:48:1b:6c:c0:9c:95:
        03:c2:3c:65:af:4f:07:37:0d:fb:61:01:29:0c:c0:d7:76:1b:
        7d:e5:12:28:ad:bb:6a:ea:91:f2:7c:eb:6a:85:9b:cb:b5:38:
        28:5a:0f:16:ce:ba:1f:66:e8:64:14:51:29:90:18:fa:31:e3:
        d1:8d:19:d0:b9:5c:e1:89:cc:51:a5:d7:e0:aa:f5:61:42:4e:
        5a:66:c3:0f:15:e8:9a:39:90:79:57:90:f1:ba:d2:60:72:94:
        8c:86:4e:8b
-----BEGIN CERTIFICATE-----
MIIDxzCCAq+gAwIBAgIBATANBgkqhkiG9w0BAQUFADBCMQswCQYDVQQGEwJCQTEL
MAkGA1UECBMCUlMxCzAJBgNVBAcTAkJMMQwwCgYDVQQLEwNFVEYxCzAJBgNVBAMT
AkNBMB4XDTIzMDIwODIxMTU0NFoXDTIzMDgwOTIxMTU0NFowODELMAkGA1UEBhMC
QkExCzAJBgNVBAgTAlJTMQwwCgYDVQQLEwNFVEYxDjAMBgNVBAMTBW1hcmtvMIIB
IjANBgkqhkiG9w0BAQEFAAOCAQ8AMIIBCgKCAQEA30fJqs1tv5NmaZ0tN3eVPokN
3kX4OwOUu0cg+N9nlSBaLovspKakBCA64qSjz0mRfqg4IiQ75b4xrfpLPvVtieKM
BFtsNnbrORuuJvTO//0M+exoVj2fAUadMJLI23H4O6TQtP8UG4FDWPekpwxTzQDD
IkFFkcvLOWSNAtz/qVNDxQ7XtVIHleijylbvON3BvAc8GlGGNKaY211hvOtbbUTy
tK1yWDw2jnDbV98sMWIp5YOuBc3kxC6J6zzilnlC1jFGcwi0e0BPDYkb5G5mDRKV
FCMWmqqb0maD8FLyvw52nGAJa0YlRW48wtxgu8p6UR2+urXVpa6NVMq3Imq/CwID
AQABo4HRMIHOMAkGA1UdEwQCMAAwCwYDVR0PBAQDAgeAMBMGA1UdJQQMMAoGCCsG
AQUFBwMCMCwGCWCGSAGG+EIBDQQfFh1PcGVuU1NMIEdlbmVyYXRlZCBDZXJ0aWZp
Y2F0ZTAdBgNVHQ4EFgQUYMxY24DN0nX//PCktHZEWkOss1YwHwYDVR0jBBgwFoAU
6uSShsfeFM/JAV/lGUtn82/YPNkwMQYDVR0fBCowKDAmoCSgIoYgaHR0cDovLzE5
Mi4xNjguMjEuODkvcm9vdGNybC5wZW0wDQYJKoZIhvcNAQEFBQADggEBAAYw29uD
VusL7UzzekDjxOw5cZmvzQhV5We1KPpIRSOudv29BW/bX1q+qneS803ZScqztnUx
gBp9J33s/t1OaKr9rSYxlZ23gQBc2zr9JPfA/iq5u14Eprqucm0QQMoyPiTsdJvM
t40cfxQgRbt68BOgDXv+5JRZIPU/rSmnnUcLqLMteIAJRxPVNbs5PWSUGedLG+Dv
MHlnEQMtAEgbbMCclQPCPGWvTwc3DfthASkMwNd2G33lEiitu2rqkfJ862qFm8u1
OChaDxbOuh9m6GQUUSmQGPox49GNGdC5XOGJzFGl1+Cq9WFCTlpmww8V6Jo5kHlX
kPG60mBylIyGTos=
-----END CERTIFICATE-----
