Certificate:
    Data:
        Version: 3 (0x2)
        Serial Number: 2 (0x2)
        Signature Algorithm: sha1WithRSAEncryption
        Issuer: C=BA, ST=RS, L=BL, OU=ETF, CN=CA
        Validity
            Not Before: Feb  8 21:19:13 2023 GMT
            Not After : Aug  9 21:19:13 2023 GMT
        Subject: C=BA, ST=RS, OU=ETF, CN=milica
        Subject Public Key Info:
            Public Key Algorithm: rsaEncryption
                Public-Key: (2048 bit)
                Modulus:
                    00:e7:19:90:00:bc:42:3d:40:88:12:30:b7:99:8e:
                    af:e7:06:4c:e0:dc:9a:9c:d2:94:23:f2:06:b6:86:
                    2d:9b:f8:91:d5:d2:ba:44:a3:f6:16:83:16:f6:9b:
                    8b:1a:83:4e:d7:09:fe:f0:ce:0a:ac:13:42:f5:ba:
                    ed:b8:52:c4:79:81:04:c0:b2:a1:07:8e:5c:e2:95:
                    ea:38:94:d7:db:04:40:5c:4b:8b:b4:85:00:ee:f7:
                    ff:9e:9a:80:09:f0:59:ad:f5:ff:12:ae:e5:74:a9:
                    86:88:00:ff:d1:e9:3e:64:c4:ba:b1:05:3d:d7:a4:
                    f2:cc:84:a3:eb:7b:70:20:2c:f1:50:62:4e:be:9a:
                    91:85:8c:01:80:1f:94:1f:c5:0f:10:81:66:87:67:
                    4f:81:95:02:4e:74:ba:27:8a:67:4e:7d:40:6b:86:
                    c5:10:de:bc:c7:09:54:a0:ac:47:ad:86:84:7a:65:
                    a4:13:41:aa:ab:2f:56:d3:8d:86:20:03:36:7d:aa:
                    33:bb:e7:22:81:64:b6:f1:89:6b:18:2b:62:4b:78:
                    bd:11:da:3c:a7:88:99:d5:a3:ca:bb:9b:a5:b3:5d:
                    c6:af:f0:59:32:cb:b5:08:31:40:fd:31:f6:27:e4:
                    3e:66:be:d2:54:94:17:6e:60:a2:4e:ba:8d:64:88:
                    dd:8f
                Exponent: 65537 (0x10001)
        X509v3 extensions:
            X509v3 Basic Constraints: 
                CA:FALSE
            X509v3 Key Usage: 
                Digital Signature
            X509v3 Extended Key Usage: 
                TLS Web Client Authentication
            Netscape Comment: 
                OpenSSL Generated Certificate
            X509v3 Subject Key Identifier: 
                0F:58:9E:BE:48:A6:E1:C3:13:65:0F:FF:9C:3D:8E:07:1B:04:31:63
            X509v3 Authority Key Identifier: 
                EA:E4:92:86:C7:DE:14:CF:C9:01:5F:E5:19:4B:67:F3:6F:D8:3C:D9
            X509v3 CRL Distribution Points: 
                Full Name:
                  URI:http://192.168.21.89/rootcrl.pem
    Signature Algorithm: sha1WithRSAEncryption
    Signature Value:
        9f:ba:1d:5d:20:5a:e6:ae:34:98:a1:fe:81:b6:c5:52:e1:a8:
        b5:32:e1:5b:4c:1f:94:77:0f:fc:94:23:40:78:f9:68:a1:f4:
        e5:b5:d2:4a:f6:9a:39:a7:09:f0:ef:8f:71:40:e6:b5:58:f1:
        de:4a:fb:ed:02:cf:39:a2:ec:95:80:8f:01:a8:f3:62:cb:d4:
        99:c3:7e:79:a6:7d:c2:9a:4d:65:43:dd:0d:88:38:a8:20:85:
        42:92:40:42:2f:50:66:5b:2b:eb:95:67:ca:8b:46:8e:cd:46:
        d1:ff:f5:1d:f8:c6:12:58:d4:a4:1e:23:b2:bd:1f:f7:ee:b6:
        0c:36:c3:1a:d8:b0:c7:c1:f3:b7:cb:b1:15:a9:77:ff:b8:ae:
        fb:b1:6d:10:8a:be:a8:8d:d6:61:72:43:41:42:d5:fb:36:60:
        06:73:59:2e:25:62:d0:fe:be:2d:bf:49:56:34:73:6c:f8:2d:
        69:8b:95:51:b9:13:9a:34:7b:d9:04:89:69:81:ad:8e:17:64:
        ca:98:4f:18:3d:f4:ab:97:c9:21:c5:ff:1f:13:da:5c:ad:0b:
        e6:d6:89:c5:49:a3:20:a4:3a:42:61:95:88:d7:91:68:78:35:
        a8:01:60:b6:58:14:6f:1e:8d:94:2e:41:d1:31:e3:89:dd:f9:
        6c:33:2c:1a
-----BEGIN CERTIFICATE-----
MIIDyDCCArCgAwIBAgIBAjANBgkqhkiG9w0BAQUFADBCMQswCQYDVQQGEwJCQTEL
MAkGA1UECBMCUlMxCzAJBgNVBAcTAkJMMQwwCgYDVQQLEwNFVEYxCzAJBgNVBAMT
AkNBMB4XDTIzMDIwODIxMTkxM1oXDTIzMDgwOTIxMTkxM1owOTELMAkGA1UEBhMC
QkExCzAJBgNVBAgTAlJTMQwwCgYDVQQLEwNFVEYxDzANBgNVBAMTBm1pbGljYTCC
ASIwDQYJKoZIhvcNAQEBBQADggEPADCCAQoCggEBAOcZkAC8Qj1AiBIwt5mOr+cG
TODcmpzSlCPyBraGLZv4kdXSukSj9haDFvabixqDTtcJ/vDOCqwTQvW67bhSxHmB
BMCyoQeOXOKV6jiU19sEQFxLi7SFAO73/56agAnwWa31/xKu5XSphogA/9HpPmTE
urEFPdek8syEo+t7cCAs8VBiTr6akYWMAYAflB/FDxCBZodnT4GVAk50uieKZ059
QGuGxRDevMcJVKCsR62GhHplpBNBqqsvVtONhiADNn2qM7vnIoFktvGJaxgrYkt4
vRHaPKeImdWjyrubpbNdxq/wWTLLtQgxQP0x9ifkPma+0lSUF25gok66jWSI3Y8C
AwEAAaOB0TCBzjAJBgNVHRMEAjAAMAsGA1UdDwQEAwIHgDATBgNVHSUEDDAKBggr
BgEFBQcDAjAsBglghkgBhvhCAQ0EHxYdT3BlblNTTCBHZW5lcmF0ZWQgQ2VydGlm
aWNhdGUwHQYDVR0OBBYEFA9Ynr5IpuHDE2UP/5w9jgcbBDFjMB8GA1UdIwQYMBaA
FOrkkobH3hTPyQFf5RlLZ/Nv2DzZMDEGA1UdHwQqMCgwJqAkoCKGIGh0dHA6Ly8x
OTIuMTY4LjIxLjg5L3Jvb3RjcmwucGVtMA0GCSqGSIb3DQEBBQUAA4IBAQCfuh1d
IFrmrjSYof6BtsVS4ai1MuFbTB+Udw/8lCNAePloofTltdJK9po5pwnw749xQOa1
WPHeSvvtAs85ouyVgI8BqPNiy9SZw355pn3Cmk1lQ90NiDioIIVCkkBCL1BmWyvr
lWfKi0aOzUbR//Ud+MYSWNSkHiOyvR/37rYMNsMa2LDHwfO3y7EVqXf/uK77sW0Q
ir6ojdZhckNBQtX7NmAGc1kuJWLQ/r4tv0lWNHNs+C1pi5VRuROaNHvZBIlpga2O
F2TKmE8YPfSrl8khxf8fE9pcrQvm1onFSaMgpDpCYZWI15FoeDWoAWC2WBRvHo2U
LkHRMeOJ3flsMywa
-----END CERTIFICATE-----
