Certificate:
    Data:
        Version: 3 (0x2)
        Serial Number: 3 (0x3)
        Signature Algorithm: sha1WithRSAEncryption
        Issuer: C=BA, ST=RS, L=BL, OU=ETF, CN=CA
        Validity
            Not Before: Feb  8 21:21:26 2023 GMT
            Not After : Aug  9 21:21:26 2023 GMT
        Subject: C=BA, ST=RS, OU=ETF, CN=ivan
        Subject Public Key Info:
            Public Key Algorithm: rsaEncryption
                Public-Key: (2048 bit)
                Modulus:
                    00:e9:c4:7b:eb:3a:e5:ef:63:28:75:5d:58:d7:16:
                    86:fb:9d:43:1f:ab:a3:c5:ca:e5:20:23:c5:22:b0:
                    f0:31:b4:c7:80:2f:aa:3a:51:b8:cc:21:d5:5a:26:
                    2d:21:83:33:23:93:84:8a:20:33:c2:94:16:73:73:
                    1a:45:a9:f8:b4:b6:a8:0e:1c:80:25:d0:0c:4b:eb:
                    1d:cd:fa:06:d9:34:43:1d:6d:e4:5f:77:60:82:0e:
                    8f:a7:da:e7:ac:ab:6b:fb:04:b8:bd:da:c4:8c:53:
                    ea:18:60:09:49:70:ac:3e:b9:77:c4:fd:cd:a7:1d:
                    6e:86:a8:dd:a6:5c:2b:8c:39:39:a5:f0:24:4f:0a:
                    63:e2:d9:e2:63:b4:78:c7:27:b4:6a:77:14:a8:ff:
                    0b:e5:c3:00:f3:ba:46:00:0e:00:82:53:ab:4f:21:
                    ac:45:e3:8d:7e:9d:4a:46:f2:02:5c:45:07:a6:c4:
                    42:a8:1f:de:4b:19:81:c9:60:cf:97:9d:ee:ad:ef:
                    f9:d5:f2:dd:4e:1a:79:c3:c1:a3:f7:a9:bf:17:8b:
                    b9:ae:e0:3e:85:6b:e4:cb:a2:ad:47:4e:37:00:2e:
                    34:d6:e6:85:97:c0:d3:3f:b5:05:b6:85:fb:98:d7:
                    ce:7c:9a:ac:4f:5b:d7:a0:1d:16:66:14:30:26:65:
                    88:01
                Exponent: 65537 (0x10001)
        X509v3 extensions:
            X509v3 Basic Constraints: 
                CA:FALSE
            X509v3 Key Usage: 
                Digital Signature
            X509v3 Extended Key Usage: 
                TLS Web Client Authentication
            Netscape Comment: 
                OpenSSL Generated Certificate
            X509v3 Subject Key Identifier: 
                E5:07:8E:39:64:1F:A9:40:DA:44:C4:36:22:D7:5F:01:17:71:18:6E
            X509v3 Authority Key Identifier: 
                EA:E4:92:86:C7:DE:14:CF:C9:01:5F:E5:19:4B:67:F3:6F:D8:3C:D9
            X509v3 CRL Distribution Points: 
                Full Name:
                  URI:http://192.168.21.89/rootcrl.pem
    Signature Algorithm: sha1WithRSAEncryption
    Signature Value:
        92:f9:cf:a8:f6:ae:4b:bc:c6:34:62:b1:cb:a1:25:82:4c:53:
        3b:db:65:9f:bd:11:b9:33:d0:cd:41:d1:9a:30:92:be:7c:f2:
        07:79:31:b4:62:79:55:4b:79:47:a7:c5:64:4a:40:eb:a1:b1:
        1c:22:96:76:66:f7:12:c0:f3:fa:08:1c:7c:61:2c:c8:fc:96:
        64:f9:c6:b3:d4:38:a1:ff:23:37:8d:ec:de:99:ed:e0:d8:25:
        63:3f:a8:21:55:ad:76:2c:9b:87:92:28:50:8f:87:68:5d:98:
        da:ed:1f:2a:04:ae:86:78:77:16:73:4e:24:2d:fa:ef:6f:58:
        96:31:d2:a7:61:4e:63:3b:2c:04:09:0d:e4:5e:ee:73:25:51:
        8d:4b:61:55:77:1e:24:e5:e0:dd:08:f9:cd:b6:d6:23:b7:ee:
        48:03:65:fa:36:6b:f0:51:13:16:49:c6:da:b0:32:51:99:95:
        c0:3d:17:27:bf:87:81:f4:ba:b4:24:35:2c:32:16:d0:95:36:
        ab:91:34:20:5c:02:1b:13:79:13:63:9d:b2:98:c9:f7:85:10:
        46:a3:83:39:73:f3:44:25:d0:e9:a0:70:9f:0c:9a:3d:34:d2:
        f9:f5:76:5c:44:8e:72:d0:a7:b9:bd:0f:2c:e9:bb:93:3b:a4:
        ed:ee:a9:16
-----BEGIN CERTIFICATE-----
MIIDxjCCAq6gAwIBAgIBAzANBgkqhkiG9w0BAQUFADBCMQswCQYDVQQGEwJCQTEL
MAkGA1UECBMCUlMxCzAJBgNVBAcTAkJMMQwwCgYDVQQLEwNFVEYxCzAJBgNVBAMT
AkNBMB4XDTIzMDIwODIxMjEyNloXDTIzMDgwOTIxMjEyNlowNzELMAkGA1UEBhMC
QkExCzAJBgNVBAgTAlJTMQwwCgYDVQQLEwNFVEYxDTALBgNVBAMTBGl2YW4wggEi
MA0GCSqGSIb3DQEBAQUAA4IBDwAwggEKAoIBAQDpxHvrOuXvYyh1XVjXFob7nUMf
q6PFyuUgI8UisPAxtMeAL6o6UbjMIdVaJi0hgzMjk4SKIDPClBZzcxpFqfi0tqgO
HIAl0AxL6x3N+gbZNEMdbeRfd2CCDo+n2uesq2v7BLi92sSMU+oYYAlJcKw+uXfE
/c2nHW6GqN2mXCuMOTml8CRPCmPi2eJjtHjHJ7RqdxSo/wvlwwDzukYADgCCU6tP
IaxF441+nUpG8gJcRQemxEKoH95LGYHJYM+Xne6t7/nV8t1OGnnDwaP3qb8Xi7mu
4D6Fa+TLoq1HTjcALjTW5oWXwNM/tQW2hfuY1858mqxPW9egHRZmFDAmZYgBAgMB
AAGjgdEwgc4wCQYDVR0TBAIwADALBgNVHQ8EBAMCB4AwEwYDVR0lBAwwCgYIKwYB
BQUHAwIwLAYJYIZIAYb4QgENBB8WHU9wZW5TU0wgR2VuZXJhdGVkIENlcnRpZmlj
YXRlMB0GA1UdDgQWBBTlB445ZB+pQNpExDYi118BF3EYbjAfBgNVHSMEGDAWgBTq
5JKGx94Uz8kBX+UZS2fzb9g82TAxBgNVHR8EKjAoMCagJKAihiBodHRwOi8vMTky
LjE2OC4yMS44OS9yb290Y3JsLnBlbTANBgkqhkiG9w0BAQUFAAOCAQEAkvnPqPau
S7zGNGKxy6ElgkxTO9tln70RuTPQzUHRmjCSvnzyB3kxtGJ5VUt5R6fFZEpA66Gx
HCKWdmb3EsDz+ggcfGEsyPyWZPnGs9Q4of8jN43s3pnt4NglYz+oIVWtdiybh5Io
UI+HaF2Y2u0fKgSuhnh3FnNOJC36729YljHSp2FOYzssBAkN5F7ucyVRjUthVXce
JOXg3Qj5zbbWI7fuSANl+jZr8FETFknG2rAyUZmVwD0XJ7+HgfS6tCQ1LDIW0JU2
q5E0IFwCGxN5E2OdspjJ94UQRqODOXPzRCXQ6aBwnwyaPTTS+fV2XESOctCnub0P
LOm7kzuk7e6pFg==
-----END CERTIFICATE-----
